; ModuleID = 'source-C-CXX/24/1035.cpp'
source_filename = "source-C-CXX/24/1035.cpp"
target datalayout = "e-m:e-p270:32:32-p271:32:32-p272:64:64-i64:64-f80:128-n8:16:32:64-S128"
target triple = "x86_64-pc-linux-gnu"

%"class.std::ios_base::Init" = type { i8 }
%"class.std::basic_istream" = type { i32 (...)**, i64, %"class.std::basic_ios" }
%"class.std::basic_ios" = type { %"class.std::ios_base", %"class.std::basic_ostream"*, i8, i8, %"class.std::basic_streambuf"*, %"class.std::ctype"*, %"class.std::num_put"*, %"class.std::num_get"* }
%"class.std::ios_base" = type { i32 (...)**, i64, i64, i32, i32, i32, %"struct.std::ios_base::_Callback_list"*, %"struct.std::ios_base::_Words", [8 x %"struct.std::ios_base::_Words"], i32, %"struct.std::ios_base::_Words"*, %"class.std::locale" }
%"struct.std::ios_base::_Callback_list" = type { %"struct.std::ios_base::_Callback_list"*, void (i32, %"class.std::ios_base"*, i32)*, i32, i32 }
%"struct.std::ios_base::_Words" = type { i8*, i64 }
%"class.std::locale" = type { %"class.std::locale::_Impl"* }
%"class.std::locale::_Impl" = type { i32, %"class.std::locale::facet"**, i64, %"class.std::locale::facet"**, i8** }
%"class.std::locale::facet" = type <{ i32 (...)**, i32, [4 x i8] }>
%"class.std::basic_ostream" = type { i32 (...)**, %"class.std::basic_ios" }
%"class.std::basic_streambuf" = type { i32 (...)**, i8*, i8*, i8*, i8*, i8*, i8*, %"class.std::locale" }
%"class.std::ctype" = type <{ %"class.std::locale::facet.base", [4 x i8], %struct.__locale_struct*, i8, [7 x i8], i32*, i32*, i16*, i8, [256 x i8], [256 x i8], i8, [6 x i8] }>
%"class.std::locale::facet.base" = type <{ i32 (...)**, i32 }>
%struct.__locale_struct = type { [13 x %struct.__locale_data*], i16*, i32*, i32*, [13 x i8*] }
%struct.__locale_data = type opaque
%"class.std::num_put" = type { %"class.std::locale::facet.base", [4 x i8] }
%"class.std::num_get" = type { %"class.std::locale::facet.base", [4 x i8] }

@_ZStL8__ioinit = internal global %"class.std::ios_base::Init" zeroinitializer, align 1
@__dso_handle = external hidden global i8
@A = dso_local local_unnamed_addr global <{ i32, [999 x i32] }> <{ i32 1, [999 x i32] zeroinitializer }>, align 16
@_ZSt3cin = external global %"class.std::basic_istream", align 8
@_ZSt4cout = external global %"class.std::basic_ostream", align 8
@llvm.global_ctors = appending global [1 x { i32, void ()*, i8* }] [{ i32, void ()*, i8* } { i32 65535, void ()* @_GLOBAL__sub_I_1035.cpp, i8* null }]

declare void @_ZNSt8ios_base4InitC1Ev(%"class.std::ios_base::Init"* nonnull align 1 dereferenceable(1)) unnamed_addr #0

; Function Attrs: nounwind
declare void @_ZNSt8ios_base4InitD1Ev(%"class.std::ios_base::Init"* nonnull align 1 dereferenceable(1)) unnamed_addr #1

; Function Attrs: nofree nounwind
declare i32 @__cxa_atexit(void (i8*)*, i8*, i8*) local_unnamed_addr #2

; Function Attrs: mustprogress nofree norecurse nosync nounwind sspstrong uwtable
define dso_local void @_Z2m2i(i32 %0) local_unnamed_addr #3 {
  %2 = icmp slt i32 %0, 0
  br i1 %2, label %6, label %3

3:                                                ; preds = %1
  %4 = add nuw i32 %0, 1
  %5 = zext i32 %4 to i64
  br label %7

6:                                                ; preds = %7, %1
  ret void

7:                                                ; preds = %3, %7
  %8 = phi i64 [ 0, %3 ], [ %16, %7 ]
  %9 = phi i32 [ 0, %3 ], [ %14, %7 ]
  %10 = getelementptr inbounds [1000 x i32], [1000 x i32]* bitcast (<{ i32, [999 x i32] }>* @A to [1000 x i32]*), i64 0, i64 %8
  %11 = load i32, i32* %10, align 4, !tbaa !5
  %12 = shl nsw i32 %11, 1
  %13 = add nsw i32 %12, %9
  %14 = sdiv i32 %13, 10
  %15 = srem i32 %13, 10
  store i32 %15, i32* %10, align 4, !tbaa !5
  %16 = add nuw nsw i64 %8, 1
  %17 = icmp eq i64 %16, %5
  br i1 %17, label %6, label %7, !llvm.loop !9
}

; Function Attrs: argmemonly mustprogress nofree nosync nounwind willreturn
declare void @llvm.lifetime.start.p0i8(i64 immarg, i8* nocapture) #4

; Function Attrs: argmemonly mustprogress nofree nosync nounwind willreturn
declare void @llvm.lifetime.end.p0i8(i64 immarg, i8* nocapture) #4

; Function Attrs: mustprogress norecurse sspstrong uwtable
define dso_local i32 @main() local_unnamed_addr #5 {
  %1 = alloca i32, align 4
  %2 = bitcast i32* %1 to i8*
  call void @llvm.lifetime.start.p0i8(i64 4, i8* nonnull %2) #7
  %3 = call nonnull align 8 dereferenceable(16) %"class.std::basic_istream"* @_ZNSirsERi(%"class.std::basic_istream"* nonnull align 8 dereferenceable(16) @_ZSt3cin, i32* nonnull align 4 dereferenceable(4) %1)
  %4 = load i32, i32* %1, align 4, !tbaa !5
  %5 = icmp slt i32 %4, 1
  br i1 %5, label %6, label %10

6:                                                ; preds = %7, %0
  br label %24

7:                                                ; preds = %13
  %8 = trunc i64 %12 to i32
  %9 = icmp slt i32 %4, %8
  br i1 %9, label %6, label %10, !llvm.loop !11

10:                                               ; preds = %0, %7
  %11 = phi i64 [ %12, %7 ], [ 1, %0 ]
  %12 = add nuw i64 %11, 1
  br label %13

13:                                               ; preds = %13, %10
  %14 = phi i64 [ 0, %10 ], [ %22, %13 ]
  %15 = phi i32 [ 0, %10 ], [ %20, %13 ]
  %16 = getelementptr inbounds [1000 x i32], [1000 x i32]* bitcast (<{ i32, [999 x i32] }>* @A to [1000 x i32]*), i64 0, i64 %14
  %17 = load i32, i32* %16, align 4, !tbaa !5
  %18 = shl nsw i32 %17, 1
  %19 = add nsw i32 %18, %15
  %20 = sdiv i32 %19, 10
  %21 = srem i32 %19, 10
  store i32 %21, i32* %16, align 4, !tbaa !5
  %22 = add nuw nsw i64 %14, 1
  %23 = icmp eq i64 %14, %11
  br i1 %23, label %7, label %13

24:                                               ; preds = %6, %24
  %25 = phi i64 [ %29, %24 ], [ 999, %6 ]
  %26 = getelementptr inbounds [1000 x i32], [1000 x i32]* bitcast (<{ i32, [999 x i32] }>* @A to [1000 x i32]*), i64 0, i64 %25
  %27 = load i32, i32* %26, align 4, !tbaa !5
  %28 = icmp eq i32 %27, 0
  %29 = add i64 %25, -1
  br i1 %28, label %24, label %30, !llvm.loop !12

30:                                               ; preds = %24
  %31 = trunc i64 %25 to i32
  %32 = icmp sgt i32 %31, -1
  br i1 %32, label %33, label %42

33:                                               ; preds = %30
  %34 = and i64 %25, 4294967295
  br label %35

35:                                               ; preds = %33, %35
  %36 = phi i64 [ %34, %33 ], [ %41, %35 ]
  %37 = getelementptr inbounds [1000 x i32], [1000 x i32]* bitcast (<{ i32, [999 x i32] }>* @A to [1000 x i32]*), i64 0, i64 %36
  %38 = load i32, i32* %37, align 4, !tbaa !5
  %39 = call nonnull align 8 dereferenceable(8) %"class.std::basic_ostream"* @_ZNSolsEi(%"class.std::basic_ostream"* nonnull align 8 dereferenceable(8) @_ZSt4cout, i32 %38)
  %40 = icmp sgt i64 %36, 0
  %41 = add nsw i64 %36, -1
  br i1 %40, label %35, label %42, !llvm.loop !13

42:                                               ; preds = %35, %30
  call void @llvm.lifetime.end.p0i8(i64 4, i8* nonnull %2) #7
  ret i32 0
}

declare nonnull align 8 dereferenceable(16) %"class.std::basic_istream"* @_ZNSirsERi(%"class.std::basic_istream"* nonnull align 8 dereferenceable(16), i32* nonnull align 4 dereferenceable(4)) local_unnamed_addr #0

declare nonnull align 8 dereferenceable(8) %"class.std::basic_ostream"* @_ZNSolsEi(%"class.std::basic_ostream"* nonnull align 8 dereferenceable(8), i32) local_unnamed_addr #0

; Function Attrs: sspstrong uwtable
define internal void @_GLOBAL__sub_I_1035.cpp() #6 section ".text.startup" {
  tail call void @_ZNSt8ios_base4InitC1Ev(%"class.std::ios_base::Init"* nonnull align 1 dereferenceable(1) @_ZStL8__ioinit)
  %1 = tail call i32 @__cxa_atexit(void (i8*)* bitcast (void (%"class.std::ios_base::Init"*)* @_ZNSt8ios_base4InitD1Ev to void (i8*)*), i8* getelementptr inbounds (%"class.std::ios_base::Init", %"class.std::ios_base::Init"* @_ZStL8__ioinit, i64 0, i32 0), i8* nonnull @__dso_handle) #7
  ret void
}


!llvm.module.flags = !{!0, !1, !2, !3}
!llvm.ident = !{!4}

!0 = !{i32 1, !"wchar_size", i32 4}
!1 = !{i32 7, !"PIC Level", i32 2}
!2 = !{i32 7, !"PIE Level", i32 2}
!3 = !{i32 7, !"uwtable", i32 1}
!4 = !{!"clang version 13.0.0"}
!5 = !{!6, !6, i64 0}
!6 = !{!"int", !7, i64 0}
!7 = !{!"omnipotent char", !8, i64 0}
!8 = !{!"Simple C++ TBAA"}
!9 = distinct !{!9, !10}
!10 = !{!"llvm.loop.mustprogress"}
!11 = distinct !{!11, !10}
!12 = distinct !{!12, !10}
!13 = distinct !{!13, !10}
